; ModuleID = '48/629.cpp'
source_filename = "48/629.cpp"
target datalayout = "e-m:e-p270:32:32-p271:32:32-p272:64:64-i64:64-f80:128-n8:16:32:64-S128"
target triple = "x86_64-pc-linux-gnu"

%"class.std::ios_base::Init" = type { i8 }
%"class.std::basic_istream" = type { i32 (...)**, i64, %"class.std::basic_ios" }
%"class.std::basic_ios" = type { %"class.std::ios_base", %"class.std::basic_ostream"*, i8, i8, %"class.std::basic_streambuf"*, %"class.std::ctype"*, %"class.std::num_put"*, %"class.std::num_get"* }
%"class.std::ios_base" = type { i32 (...)**, i64, i64, i32, i32, i32, %"struct.std::ios_base::_Callback_list"*, %"struct.std::ios_base::_Words", [8 x %"struct.std::ios_base::_Words"], i32, %"struct.std::ios_base::_Words"*, %"class.std::locale" }
%"struct.std::ios_base::_Callback_list" = type { %"struct.std::ios_base::_Callback_list"*, void (i32, %"class.std::ios_base"*, i32)*, i32, i32 }
%"struct.std::ios_base::_Words" = type { i8*, i64 }
%"class.std::locale" = type { %"class.std::locale::_Impl"* }
%"class.std::locale::_Impl" = type { i32, %"class.std::locale::facet"**, i64, %"class.std::locale::facet"**, i8** }
%"class.std::locale::facet" = type <{ i32 (...)**, i32, [4 x i8] }>
%"class.std::basic_ostream" = type { i32 (...)**, %"class.std::basic_ios" }
%"class.std::basic_streambuf" = type { i32 (...)**, i8*, i8*, i8*, i8*, i8*, i8*, %"class.std::locale" }
%"class.std::ctype" = type <{ %"class.std::locale::facet.base", [4 x i8], %struct.__locale_struct*, i8, [7 x i8], i32*, i32*, i16*, i8, [256 x i8], [256 x i8], i8, [6 x i8] }>
%"class.std::locale::facet.base" = type <{ i32 (...)**, i32 }>
%struct.__locale_struct = type { [13 x %struct.__locale_data*], i16*, i32*, i32*, [13 x i8*] }
%struct.__locale_data = type opaque
%"class.std::num_put" = type { %"class.std::locale::facet.base", [4 x i8] }
%"class.std::num_get" = type { %"class.std::locale::facet.base", [4 x i8] }

@_ZStL8__ioinit = internal global %"class.std::ios_base::Init" zeroinitializer, align 1
@__dso_handle = external hidden global i8
@m = dso_local global i32 0, align 4
@n = dso_local global i32 0, align 4
@i = dso_local global i32 0, align 4
@j = dso_local global i32 0, align 4
@_ZSt3cin = external dso_local global %"class.std::basic_istream", align 8
@_ZSt4cout = external dso_local global %"class.std::basic_ostream", align 8
@.str = private unnamed_addr constant [2 x i8] c" \00", align 1
@llvm.global_ctors = appending global [1 x { i32, void ()*, i8* }] [{ i32, void ()*, i8* } { i32 65535, void ()* @_GLOBAL__sub_I_629.cpp, i8* null }]

; Function Attrs: noinline uwtable
define internal void @__cxx_global_var_init() #0 section ".text.startup" {
  call void @_ZNSt8ios_base4InitC1Ev(%"class.std::ios_base::Init"* @_ZStL8__ioinit)
  %1 = call i32 @__cxa_atexit(void (i8*)* bitcast (void (%"class.std::ios_base::Init"*)* @_ZNSt8ios_base4InitD1Ev to void (i8*)*), i8* getelementptr inbounds (%"class.std::ios_base::Init", %"class.std::ios_base::Init"* @_ZStL8__ioinit, i32 0, i32 0), i8* @__dso_handle) #3
  ret void
}

declare dso_local void @_ZNSt8ios_base4InitC1Ev(%"class.std::ios_base::Init"*) unnamed_addr #1

; Function Attrs: nounwind
declare dso_local void @_ZNSt8ios_base4InitD1Ev(%"class.std::ios_base::Init"*) unnamed_addr #2

; Function Attrs: nounwind
declare dso_local i32 @__cxa_atexit(void (i8*)*, i8*, i8*) #3

; Function Attrs: noinline uwtable
define dso_local i32 @_Z3baciii(i32 %0, i32 %1, i32 %2) #0 {
  %4 = alloca i32, align 4
  %5 = alloca i32, align 4
  %6 = alloca i32, align 4
  %7 = alloca i32, align 4
  store i32 %0, i32* %5, align 4
  store i32 %1, i32* %6, align 4
  store i32 %2, i32* %7, align 4
  %8 = load i32, i32* %5, align 4
  %9 = icmp eq i32 %8, 0
  br i1 %9, label %10, label %18

10:                                               ; preds = %3
  %11 = load i32, i32* %6, align 4
  %12 = icmp eq i32 %11, 5
  br i1 %12, label %13, label %18

13:                                               ; preds = %10
  %14 = load i32, i32* %7, align 4
  %15 = icmp eq i32 %14, 5
  br i1 %15, label %16, label %18

16:                                               ; preds = %13
  %17 = load i32, i32* @m, align 4
  store i32 %17, i32* %4, align 4
  br label %106

18:                                               ; preds = %13, %10, %3
  %19 = load i32, i32* %6, align 4
  %20 = load i32, i32* %5, align 4
  %21 = sub nsw i32 5, %20
  %22 = icmp sge i32 %19, %21
  br i1 %22, label %23, label %105

23:                                               ; preds = %18
  %24 = load i32, i32* %6, align 4
  %25 = load i32, i32* %5, align 4
  %26 = add nsw i32 5, %25
  %27 = icmp sle i32 %24, %26
  br i1 %27, label %28, label %105

28:                                               ; preds = %23
  %29 = load i32, i32* %7, align 4
  %30 = load i32, i32* %5, align 4
  %31 = sub nsw i32 5, %30
  %32 = icmp sge i32 %29, %31
  br i1 %32, label %33, label %105

33:                                               ; preds = %28
  %34 = load i32, i32* %7, align 4
  %35 = load i32, i32* %5, align 4
  %36 = add nsw i32 5, %35
  %37 = icmp sle i32 %34, %36
  br i1 %37, label %38, label %105

38:                                               ; preds = %33
  %39 = load i32, i32* %5, align 4
  %40 = sub nsw i32 %39, 1
  %41 = load i32, i32* %6, align 4
  %42 = sub nsw i32 %41, 1
  %43 = load i32, i32* %7, align 4
  %44 = sub nsw i32 %43, 1
  %45 = call i32 @_Z3baciii(i32 %40, i32 %42, i32 %44)
  %46 = load i32, i32* %5, align 4
  %47 = sub nsw i32 %46, 1
  %48 = load i32, i32* %6, align 4
  %49 = sub nsw i32 %48, 1
  %50 = load i32, i32* %7, align 4
  %51 = call i32 @_Z3baciii(i32 %47, i32 %49, i32 %50)
  %52 = add nsw i32 %45, %51
  %53 = load i32, i32* %5, align 4
  %54 = sub nsw i32 %53, 1
  %55 = load i32, i32* %6, align 4
  %56 = sub nsw i32 %55, 1
  %57 = load i32, i32* %7, align 4
  %58 = add nsw i32 %57, 1
  %59 = call i32 @_Z3baciii(i32 %54, i32 %56, i32 %58)
  %60 = add nsw i32 %52, %59
  %61 = load i32, i32* %5, align 4
  %62 = sub nsw i32 %61, 1
  %63 = load i32, i32* %6, align 4
  %64 = load i32, i32* %7, align 4
  %65 = sub nsw i32 %64, 1
  %66 = call i32 @_Z3baciii(i32 %62, i32 %63, i32 %65)
  %67 = add nsw i32 %60, %66
  %68 = load i32, i32* %5, align 4
  %69 = sub nsw i32 %68, 1
  %70 = load i32, i32* %6, align 4
  %71 = load i32, i32* %7, align 4
  %72 = add nsw i32 %71, 1
  %73 = call i32 @_Z3baciii(i32 %69, i32 %70, i32 %72)
  %74 = add nsw i32 %67, %73
  %75 = load i32, i32* %5, align 4
  %76 = sub nsw i32 %75, 1
  %77 = load i32, i32* %6, align 4
  %78 = add nsw i32 %77, 1
  %79 = load i32, i32* %7, align 4
  %80 = sub nsw i32 %79, 1
  %81 = call i32 @_Z3baciii(i32 %76, i32 %78, i32 %80)
  %82 = add nsw i32 %74, %81
  %83 = load i32, i32* %5, align 4
  %84 = sub nsw i32 %83, 1
  %85 = load i32, i32* %6, align 4
  %86 = add nsw i32 %85, 1
  %87 = load i32, i32* %7, align 4
  %88 = call i32 @_Z3baciii(i32 %84, i32 %86, i32 %87)
  %89 = add nsw i32 %82, %88
  %90 = load i32, i32* %5, align 4
  %91 = sub nsw i32 %90, 1
  %92 = load i32, i32* %6, align 4
  %93 = add nsw i32 %92, 1
  %94 = load i32, i32* %7, align 4
  %95 = add nsw i32 %94, 1
  %96 = call i32 @_Z3baciii(i32 %91, i32 %93, i32 %95)
  %97 = add nsw i32 %89, %96
  %98 = load i32, i32* %5, align 4
  %99 = sub nsw i32 %98, 1
  %100 = load i32, i32* %6, align 4
  %101 = load i32, i32* %7, align 4
  %102 = call i32 @_Z3baciii(i32 %99, i32 %100, i32 %101)
  %103 = mul nsw i32 2, %102
  %104 = add nsw i32 %97, %103
  store i32 %104, i32* %4, align 4
  br label %106

105:                                              ; preds = %33, %28, %23, %18
  store i32 0, i32* %4, align 4
  br label %106

106:                                              ; preds = %105, %38, %16
  %107 = load i32, i32* %4, align 4
  ret i32 %107
}

; Function Attrs: noinline norecurse uwtable
define dso_local i32 @main() #4 {
  %1 = alloca i32, align 4
  store i32 0, i32* %1, align 4
  %2 = call dereferenceable(280) %"class.std::basic_istream"* @_ZNSirsERi(%"class.std::basic_istream"* @_ZSt3cin, i32* dereferenceable(4) @m)
  %3 = call dereferenceable(280) %"class.std::basic_istream"* @_ZNSirsERi(%"class.std::basic_istream"* %2, i32* dereferenceable(4) @n)
  store i32 1, i32* @i, align 4
  br label %4

4:                                                ; preds = %27, %0
  %5 = load i32, i32* @i, align 4
  %6 = icmp sle i32 %5, 9
  br i1 %6, label %7, label %30

7:                                                ; preds = %4
  store i32 1, i32* @j, align 4
  br label %8

8:                                                ; preds = %18, %7
  %9 = load i32, i32* @j, align 4
  %10 = icmp sle i32 %9, 8
  br i1 %10, label %11, label %21

11:                                               ; preds = %8
  %12 = load i32, i32* @n, align 4
  %13 = load i32, i32* @i, align 4
  %14 = load i32, i32* @j, align 4
  %15 = call i32 @_Z3baciii(i32 %12, i32 %13, i32 %14)
  %16 = call dereferenceable(272) %"class.std::basic_ostream"* @_ZNSolsEi(%"class.std::basic_ostream"* @_ZSt4cout, i32 %15)
  %17 = call dereferenceable(272) %"class.std::basic_ostream"* @_ZStlsISt11char_traitsIcEERSt13basic_ostreamIcT_ES5_PKc(%"class.std::basic_ostream"* dereferenceable(272) %16, i8* getelementptr inbounds ([2 x i8], [2 x i8]* @.str, i64 0, i64 0))
  br label %18

18:                                               ; preds = %11
  %19 = load i32, i32* @j, align 4
  %20 = add nsw i32 %19, 1
  store i32 %20, i32* @j, align 4
  br label %8

21:                                               ; preds = %8
  %22 = load i32, i32* @n, align 4
  %23 = load i32, i32* @i, align 4
  %24 = call i32 @_Z3baciii(i32 %22, i32 %23, i32 9)
  %25 = call dereferenceable(272) %"class.std::basic_ostream"* @_ZNSolsEi(%"class.std::basic_ostream"* @_ZSt4cout, i32 %24)
  %26 = call dereferenceable(272) %"class.std::basic_ostream"* @_ZNSolsEPFRSoS_E(%"class.std::basic_ostream"* %25, %"class.std::basic_ostream"* (%"class.std::basic_ostream"*)* @_ZSt4endlIcSt11char_traitsIcEERSt13basic_ostreamIT_T0_ES6_)
  br label %27

27:                                               ; preds = %21
  %28 = load i32, i32* @i, align 4
  %29 = add nsw i32 %28, 1
  store i32 %29, i32* @i, align 4
  br label %4

30:                                               ; preds = %4
  ret i32 0
}

declare dso_local dereferenceable(280) %"class.std::basic_istream"* @_ZNSirsERi(%"class.std::basic_istream"*, i32* dereferenceable(4)) #1

declare dso_local dereferenceable(272) %"class.std::basic_ostream"* @_ZStlsISt11char_traitsIcEERSt13basic_ostreamIcT_ES5_PKc(%"class.std::basic_ostream"* dereferenceable(272), i8*) #1

declare dso_local dereferenceable(272) %"class.std::basic_ostream"* @_ZNSolsEi(%"class.std::basic_ostream"*, i32) #1

declare dso_local dereferenceable(272) %"class.std::basic_ostream"* @_ZNSolsEPFRSoS_E(%"class.std::basic_ostream"*, %"class.std::basic_ostream"* (%"class.std::basic_ostream"*)*) #1

declare dso_local dereferenceable(272) %"class.std::basic_ostream"* @_ZSt4endlIcSt11char_traitsIcEERSt13basic_ostreamIT_T0_ES6_(%"class.std::basic_ostream"* dereferenceable(272)) #1

; Function Attrs: noinline uwtable
define internal void @_GLOBAL__sub_I_629.cpp() #0 section ".text.startup" {
  call void @__cxx_global_var_init()
  ret void
}


!llvm.module.flags = !{!0}
!llvm.ident = !{!1}

!0 = !{i32 1, !"wchar_size", i32 4}
!1 = !{!"clang version 10.0.0-4ubuntu1 "}
