; ModuleID = 'source-C-CXX/47/629.cpp'
source_filename = "source-C-CXX/47/629.cpp"
target datalayout = "e-m:e-p270:32:32-p271:32:32-p272:64:64-i64:64-f80:128-n8:16:32:64-S128"
target triple = "x86_64-pc-linux-gnu"

%"class.std::ios_base::Init" = type { i8 }
%"class.std::basic_istream" = type { i32 (...)**, i64, %"class.std::basic_ios" }
%"class.std::basic_ios" = type { %"class.std::ios_base", %"class.std::basic_ostream"*, i8, i8, %"class.std::basic_streambuf"*, %"class.std::ctype"*, %"class.std::num_put"*, %"class.std::num_get"* }
%"class.std::ios_base" = type { i32 (...)**, i64, i64, i32, i32, i32, %"struct.std::ios_base::_Callback_list"*, %"struct.std::ios_base::_Words", [8 x %"struct.std::ios_base::_Words"], i32, %"struct.std::ios_base::_Words"*, %"class.std::locale" }
%"struct.std::ios_base::_Callback_list" = type { %"struct.std::ios_base::_Callback_list"*, void (i32, %"class.std::ios_base"*, i32)*, i32, i32 }
%"struct.std::ios_base::_Words" = type { i8*, i64 }
%"class.std::locale" = type { %"class.std::locale::_Impl"* }
%"class.std::locale::_Impl" = type { i32, %"class.std::locale::facet"**, i64, %"class.std::locale::facet"**, i8** }
%"class.std::locale::facet" = type <{ i32 (...)**, i32, [4 x i8] }>
%"class.std::basic_ostream" = type { i32 (...)**, %"class.std::basic_ios" }
%"class.std::basic_streambuf" = type { i32 (...)**, i8*, i8*, i8*, i8*, i8*, i8*, %"class.std::locale" }
%"class.std::ctype" = type <{ %"class.std::locale::facet.base", [4 x i8], %struct.__locale_struct*, i8, [7 x i8], i32*, i32*, i16*, i8, [256 x i8], [256 x i8], i8, [6 x i8] }>
%"class.std::locale::facet.base" = type <{ i32 (...)**, i32 }>
%struct.__locale_struct = type { [13 x %struct.__locale_data*], i16*, i32*, i32*, [13 x i8*] }
%struct.__locale_data = type opaque
%"class.std::num_put" = type { %"class.std::locale::facet.base", [4 x i8] }
%"class.std::num_get" = type { %"class.std::locale::facet.base", [4 x i8] }

@_ZStL8__ioinit = internal global %"class.std::ios_base::Init" zeroinitializer, align 1
@__dso_handle = external hidden global i8
@m = dso_local global i32 0, align 4
@n = dso_local global i32 0, align 4
@i = dso_local local_unnamed_addr global i32 0, align 4
@j = dso_local local_unnamed_addr global i32 0, align 4
@_ZSt3cin = external global %"class.std::basic_istream", align 8
@_ZSt4cout = external global %"class.std::basic_ostream", align 8
@.str = private unnamed_addr constant [2 x i8] c" \00", align 1
@llvm.global_ctors = appending global [1 x { i32, void ()*, i8* }] [{ i32, void ()*, i8* } { i32 65535, void ()* @_GLOBAL__sub_I_629.cpp, i8* null }]

declare void @_ZNSt8ios_base4InitC1Ev(%"class.std::ios_base::Init"* nonnull align 1 dereferenceable(1)) unnamed_addr #0

; Function Attrs: nounwind
declare void @_ZNSt8ios_base4InitD1Ev(%"class.std::ios_base::Init"* nonnull align 1 dereferenceable(1)) unnamed_addr #1

; Function Attrs: nofree nounwind
declare i32 @__cxa_atexit(void (i8*)*, i8*, i8*) local_unnamed_addr #2

; Function Attrs: mustprogress nofree nosync nounwind readonly sspstrong uwtable willreturn
define dso_local i32 @_Z3baciii(i32 %0, i32 %1, i32 %2) local_unnamed_addr #3 {
  %4 = icmp eq i32 %0, 0
  %5 = icmp eq i32 %1, 5
  %6 = select i1 %4, i1 %5, i1 false
  %7 = icmp eq i32 %2, 5
  %8 = select i1 %6, i1 %7, i1 false
  br i1 %8, label %9, label %11

9:                                                ; preds = %3
  %10 = load i32, i32* @m, align 4, !tbaa !5
  br label %21

11:                                               ; preds = %3
  %12 = sub nsw i32 5, %0
  %13 = icmp sgt i32 %12, %1
  br i1 %13, label %21, label %14

14:                                               ; preds = %11
  %15 = add nsw i32 %0, 5
  %16 = icmp slt i32 %15, %1
  %17 = icmp sgt i32 %12, %2
  %18 = select i1 %16, i1 true, i1 %17
  %19 = icmp slt i32 %15, %2
  %20 = select i1 %18, i1 true, i1 %19
  br i1 %20, label %21, label %23

21:                                               ; preds = %9, %14, %11, %23
  %22 = phi i32 [ %46, %23 ], [ %10, %9 ], [ 0, %14 ], [ 0, %11 ]
  ret i32 %22

23:                                               ; preds = %14
  %24 = add nsw i32 %0, -1
  %25 = add nsw i32 %1, -1
  %26 = add nsw i32 %2, -1
  %27 = tail call i32 @_Z3baciii(i32 %24, i32 %25, i32 %26)
  %28 = tail call i32 @_Z3baciii(i32 %24, i32 %25, i32 %2)
  %29 = add nsw i32 %28, %27
  %30 = add nsw i32 %2, 1
  %31 = tail call i32 @_Z3baciii(i32 %24, i32 %25, i32 %30)
  %32 = add nsw i32 %29, %31
  %33 = tail call i32 @_Z3baciii(i32 %24, i32 %1, i32 %26)
  %34 = add nsw i32 %32, %33
  %35 = tail call i32 @_Z3baciii(i32 %24, i32 %1, i32 %30)
  %36 = add nsw i32 %34, %35
  %37 = add nsw i32 %1, 1
  %38 = tail call i32 @_Z3baciii(i32 %24, i32 %37, i32 %26)
  %39 = add nsw i32 %36, %38
  %40 = tail call i32 @_Z3baciii(i32 %24, i32 %37, i32 %2)
  %41 = add nsw i32 %39, %40
  %42 = tail call i32 @_Z3baciii(i32 %24, i32 %37, i32 %30)
  %43 = add nsw i32 %41, %42
  %44 = tail call i32 @_Z3baciii(i32 %24, i32 %1, i32 %2)
  %45 = shl nsw i32 %44, 1
  %46 = add nsw i32 %43, %45
  br label %21
}

; Function Attrs: mustprogress norecurse sspstrong uwtable
define dso_local i32 @main() local_unnamed_addr #4 {
  %1 = tail call nonnull align 8 dereferenceable(16) %"class.std::basic_istream"* @_ZNSirsERi(%"class.std::basic_istream"* nonnull align 8 dereferenceable(16) @_ZSt3cin, i32* nonnull align 4 dereferenceable(4) @m)
  %2 = tail call nonnull align 8 dereferenceable(16) %"class.std::basic_istream"* @_ZNSirsERi(%"class.std::basic_istream"* nonnull align 8 dereferenceable(16) %1, i32* nonnull align 4 dereferenceable(4) @n)
  store i32 1, i32* @i, align 4, !tbaa !5
  br label %3

3:                                                ; preds = %0, %47
  %4 = phi i32 [ 1, %0 ], [ %52, %47 ]
  store i32 1, i32* @j, align 4, !tbaa !5
  br label %5

5:                                                ; preds = %15, %3
  %6 = phi i32 [ %4, %3 ], [ %16, %15 ]
  %7 = phi i32 [ 1, %3 ], [ %13, %15 ]
  %8 = load i32, i32* @n, align 4, !tbaa !5
  %9 = tail call i32 @_Z3baciii(i32 %8, i32 %6, i32 %7)
  %10 = tail call nonnull align 8 dereferenceable(8) %"class.std::basic_ostream"* @_ZNSolsEi(%"class.std::basic_ostream"* nonnull align 8 dereferenceable(8) @_ZSt4cout, i32 %9)
  %11 = tail call nonnull align 8 dereferenceable(8) %"class.std::basic_ostream"* @_ZSt16__ostream_insertIcSt11char_traitsIcEERSt13basic_ostreamIT_T0_ES6_PKS3_l(%"class.std::basic_ostream"* nonnull align 8 dereferenceable(8) %10, i8* nonnull getelementptr inbounds ([2 x i8], [2 x i8]* @.str, i64 0, i64 0), i64 1)
  %12 = load i32, i32* @j, align 4, !tbaa !5
  %13 = add nsw i32 %12, 1
  store i32 %13, i32* @j, align 4, !tbaa !5
  %14 = icmp slt i32 %12, 8
  br i1 %14, label %15, label %17, !llvm.loop !9

15:                                               ; preds = %5
  %16 = load i32, i32* @i, align 4, !tbaa !5
  br label %5

17:                                               ; preds = %5
  %18 = load i32, i32* @n, align 4, !tbaa !5
  %19 = load i32, i32* @i, align 4, !tbaa !5
  %20 = tail call i32 @_Z3baciii(i32 %18, i32 %19, i32 9)
  %21 = tail call nonnull align 8 dereferenceable(8) %"class.std::basic_ostream"* @_ZNSolsEi(%"class.std::basic_ostream"* nonnull align 8 dereferenceable(8) @_ZSt4cout, i32 %20)
  %22 = bitcast %"class.std::basic_ostream"* %21 to i8**
  %23 = load i8*, i8** %22, align 8, !tbaa !11
  %24 = getelementptr i8, i8* %23, i64 -24
  %25 = bitcast i8* %24 to i64*
  %26 = load i64, i64* %25, align 8
  %27 = bitcast %"class.std::basic_ostream"* %21 to i8*
  %28 = add nsw i64 %26, 240
  %29 = getelementptr inbounds i8, i8* %27, i64 %28
  %30 = bitcast i8* %29 to %"class.std::ctype"**
  %31 = load %"class.std::ctype"*, %"class.std::ctype"** %30, align 8, !tbaa !13
  %32 = icmp eq %"class.std::ctype"* %31, null
  br i1 %32, label %33, label %34

33:                                               ; preds = %17
  tail call void @_ZSt16__throw_bad_castv() #7
  unreachable

34:                                               ; preds = %17
  %35 = getelementptr inbounds %"class.std::ctype", %"class.std::ctype"* %31, i64 0, i32 8
  %36 = load i8, i8* %35, align 8, !tbaa !17
  %37 = icmp eq i8 %36, 0
  br i1 %37, label %41, label %38

38:                                               ; preds = %34
  %39 = getelementptr inbounds %"class.std::ctype", %"class.std::ctype"* %31, i64 0, i32 9, i64 10
  %40 = load i8, i8* %39, align 1, !tbaa !19
  br label %47

41:                                               ; preds = %34
  tail call void @_ZNKSt5ctypeIcE13_M_widen_initEv(%"class.std::ctype"* nonnull align 8 dereferenceable(570) %31)
  %42 = bitcast %"class.std::ctype"* %31 to i8 (%"class.std::ctype"*, i8)***
  %43 = load i8 (%"class.std::ctype"*, i8)**, i8 (%"class.std::ctype"*, i8)*** %42, align 8, !tbaa !11
  %44 = getelementptr inbounds i8 (%"class.std::ctype"*, i8)*, i8 (%"class.std::ctype"*, i8)** %43, i64 6
  %45 = load i8 (%"class.std::ctype"*, i8)*, i8 (%"class.std::ctype"*, i8)** %44, align 8
  %46 = tail call signext i8 %45(%"class.std::ctype"* nonnull align 8 dereferenceable(570) %31, i8 signext 10)
  br label %47

47:                                               ; preds = %38, %41
  %48 = phi i8 [ %40, %38 ], [ %46, %41 ]
  %49 = tail call nonnull align 8 dereferenceable(8) %"class.std::basic_ostream"* @_ZNSo3putEc(%"class.std::basic_ostream"* nonnull align 8 dereferenceable(8) %21, i8 signext %48)
  %50 = tail call nonnull align 8 dereferenceable(8) %"class.std::basic_ostream"* @_ZNSo5flushEv(%"class.std::basic_ostream"* nonnull align 8 dereferenceable(8) %49)
  %51 = load i32, i32* @i, align 4, !tbaa !5
  %52 = add nsw i32 %51, 1
  store i32 %52, i32* @i, align 4, !tbaa !5
  %53 = icmp slt i32 %51, 9
  br i1 %53, label %3, label %54, !llvm.loop !20

54:                                               ; preds = %47
  ret i32 0
}

declare nonnull align 8 dereferenceable(16) %"class.std::basic_istream"* @_ZNSirsERi(%"class.std::basic_istream"* nonnull align 8 dereferenceable(16), i32* nonnull align 4 dereferenceable(4)) local_unnamed_addr #0

declare nonnull align 8 dereferenceable(8) %"class.std::basic_ostream"* @_ZNSolsEi(%"class.std::basic_ostream"* nonnull align 8 dereferenceable(8), i32) local_unnamed_addr #0

declare nonnull align 8 dereferenceable(8) %"class.std::basic_ostream"* @_ZSt16__ostream_insertIcSt11char_traitsIcEERSt13basic_ostreamIT_T0_ES6_PKS3_l(%"class.std::basic_ostream"* nonnull align 8 dereferenceable(8), i8*, i64) local_unnamed_addr #0

declare nonnull align 8 dereferenceable(8) %"class.std::basic_ostream"* @_ZNSo3putEc(%"class.std::basic_ostream"* nonnull align 8 dereferenceable(8), i8 signext) local_unnamed_addr #0

declare nonnull align 8 dereferenceable(8) %"class.std::basic_ostream"* @_ZNSo5flushEv(%"class.std::basic_ostream"* nonnull align 8 dereferenceable(8)) local_unnamed_addr #0

; Function Attrs: noreturn
declare void @_ZSt16__throw_bad_castv() local_unnamed_addr #5

declare void @_ZNKSt5ctypeIcE13_M_widen_initEv(%"class.std::ctype"* nonnull align 8 dereferenceable(570)) local_unnamed_addr #0

; Function Attrs: sspstrong uwtable
define internal void @_GLOBAL__sub_I_629.cpp() #6 section ".text.startup" {
  tail call void @_ZNSt8ios_base4InitC1Ev(%"class.std::ios_base::Init"* nonnull align 1 dereferenceable(1) @_ZStL8__ioinit)
  %1 = tail call i32 @__cxa_atexit(void (i8*)* bitcast (void (%"class.std::ios_base::Init"*)* @_ZNSt8ios_base4InitD1Ev to void (i8*)*), i8* getelementptr inbounds (%"class.std::ios_base::Init", %"class.std::ios_base::Init"* @_ZStL8__ioinit, i64 0, i32 0), i8* nonnull @__dso_handle) #8
  ret void
}


!llvm.module.flags = !{!0, !1, !2, !3}
!llvm.ident = !{!4}

!0 = !{i32 1, !"wchar_size", i32 4}
!1 = !{i32 7, !"PIC Level", i32 2}
!2 = !{i32 7, !"PIE Level", i32 2}
!3 = !{i32 7, !"uwtable", i32 1}
!4 = !{!"clang version 13.0.0"}
!5 = !{!6, !6, i64 0}
!6 = !{!"int", !7, i64 0}
!7 = !{!"omnipotent char", !8, i64 0}
!8 = !{!"Simple C++ TBAA"}
!9 = distinct !{!9, !10}
!10 = !{!"llvm.loop.mustprogress"}
!11 = !{!12, !12, i64 0}
!12 = !{!"vtable pointer", !8, i64 0}
!13 = !{!14, !15, i64 240}
!14 = !{!"_ZTSSt9basic_iosIcSt11char_traitsIcEE", !15, i64 216, !7, i64 224, !16, i64 225, !15, i64 232, !15, i64 240, !15, i64 248, !15, i64 256}
!15 = !{!"any pointer", !7, i64 0}
!16 = !{!"bool", !7, i64 0}
!17 = !{!18, !7, i64 56}
!18 = !{!"_ZTSSt5ctypeIcE", !15, i64 16, !16, i64 24, !15, i64 32, !15, i64 40, !15, i64 48, !7, i64 56, !7, i64 57, !7, i64 313, !7, i64 569}
!19 = !{!7, !7, i64 0}
!20 = distinct !{!20, !10}
